; Function Attrs: nounwind uwtable
define ptr @l_Lake_StdVer_toString(ptr noundef %0) #0 {
  %2 = getelementptr inbounds nuw i8, ptr %0, i64 8
  %3 = getelementptr inbounds nuw i8, ptr %0, i64 16
  %4 = load ptr, ptr %3, align 8, !tbaa !4
  %5 = ptrtoint ptr %4 to i64
  %6 = and i64 %5, 1
  %.not = icmp eq i64 %6, 0
  br i1 %.not, label %7, label %lean_dec.exit34.thread

7:                                                ; preds = %1
  %.val.i = load i32, ptr %4, align 4, !tbaa !8
  %8 = icmp sgt i32 %.val.i, 0
  br i1 %8, label %9, label %11, !prof !11

9:                                                ; preds = %7
  %10 = add nuw i32 %.val.i, 1
  store i32 %10, ptr %4, align 4, !tbaa !8
  br label %lean_dec.exit34

11:                                               ; preds = %7
  %.not.i45 = icmp eq i32 %.val.i, 0
  br i1 %.not.i45, label %lean_dec.exit34, label %12

12:                                               ; preds = %11
  tail call void @lean_inc_ref_cold(ptr noundef nonnull %4) #5
  br label %lean_dec.exit34

lean_dec.exit34:                                  ; preds = %12, %11, %9
  %13 = getelementptr i8, ptr %4, i64 8
  %.val = load i64, ptr %13, align 8, !tbaa !12
  %.mask = and i64 %.val, 9223372036854775807
  %.not52 = icmp eq i64 %.mask, 1
  br i1 %.not52, label %57, label %15

lean_dec.exit34.thread:                           ; preds = %1
  %14 = getelementptr i8, ptr %4, i64 8
  %.val58 = load i64, ptr %14, align 8, !tbaa !12
  %.mask59 = and i64 %.val58, 9223372036854775807
  %.not5260 = icmp eq i64 %.mask59, 1
  br i1 %.not5260, label %lean_dec.exit30, label %15

15:                                               ; preds = %lean_dec.exit34.thread, %lean_dec.exit34
  %16 = load ptr, ptr %2, align 8, !tbaa !4
  %17 = ptrtoint ptr %16 to i64
  %18 = and i64 %17, 1
  %.not55 = icmp eq i64 %18, 0
  br i1 %.not55, label %19, label %lean_inc.exit28

19:                                               ; preds = %15
  %.val.i46 = load i32, ptr %16, align 4, !tbaa !8
  %20 = icmp sgt i32 %.val.i46, 0
  br i1 %20, label %21, label %23, !prof !11

21:                                               ; preds = %19
  %22 = add nuw i32 %.val.i46, 1
  store i32 %22, ptr %16, align 4, !tbaa !8
  br label %lean_inc.exit28

23:                                               ; preds = %19
  %.not.i47 = icmp eq i32 %.val.i46, 0
  br i1 %.not.i47, label %lean_inc.exit28, label %24

24:                                               ; preds = %23
  tail call void @lean_inc_ref_cold(ptr noundef nonnull %16) #5
  br label %lean_inc.exit28

lean_inc.exit28:                                  ; preds = %24, %23, %21, %15
  %25 = ptrtoint ptr %0 to i64
  %26 = and i64 %25, 1
  %.not56 = icmp eq i64 %26, 0
  br i1 %.not56, label %27, label %lean_dec.exit33

27:                                               ; preds = %lean_inc.exit28
  %28 = load i32, ptr %0, align 4, !tbaa !8
  %29 = icmp sgt i32 %28, 1
  br i1 %29, label %30, label %32, !prof !11

30:                                               ; preds = %27
  %31 = add nsw i32 %28, -1
  store i32 %31, ptr %0, align 4, !tbaa !8
  br label %lean_dec.exit33

32:                                               ; preds = %27
  %.not.i35 = icmp eq i32 %28, 0
  br i1 %.not.i35, label %lean_dec.exit33, label %33

33:                                               ; preds = %32
  tail call void @lean_dec_ref_cold(ptr noundef nonnull %0) #5
  br label %lean_dec.exit33

lean_dec.exit33:                                  ; preds = %33, %32, %30, %lean_inc.exit28
  %34 = tail call ptr @l_Lake_SemVerCore_toString(ptr noundef %16)
  %35 = load ptr, ptr @l_Lake_SemVerCore_parse___closed__2, align 8, !tbaa !4
  %36 = tail call ptr @lean_string_append(ptr noundef %35, ptr noundef %34) #5
  %37 = ptrtoint ptr %34 to i64
  %38 = and i64 %37, 1
  %.not57 = icmp eq i64 %38, 0
  br i1 %.not57, label %39, label %lean_dec.exit32

39:                                               ; preds = %lean_dec.exit33
  %40 = load i32, ptr %34, align 4, !tbaa !8
  %41 = icmp sgt i32 %40, 1
  br i1 %41, label %42, label %44, !prof !11

42:                                               ; preds = %39
  %43 = add nsw i32 %40, -1
  store i32 %43, ptr %34, align 4, !tbaa !8
  br label %lean_dec.exit32

44:                                               ; preds = %39
  %.not.i37 = icmp eq i32 %40, 0
  br i1 %.not.i37, label %lean_dec.exit32, label %45

45:                                               ; preds = %44
  tail call void @lean_dec_ref_cold(ptr noundef nonnull %34) #5
  br label %lean_dec.exit32

lean_dec.exit32:                                  ; preds = %45, %44, %42, %lean_dec.exit33
  %46 = load ptr, ptr @l_Lake_StdVer_toString___closed__1, align 8, !tbaa !4
  %47 = tail call ptr @lean_string_append(ptr noundef %36, ptr noundef %46) #5
  %48 = tail call ptr @lean_string_append(ptr noundef %47, ptr noundef nonnull %4) #5
  br i1 %.not, label %49, label %lean_dec.exit31

49:                                               ; preds = %lean_dec.exit32
  %50 = load i32, ptr %4, align 4, !tbaa !8
  %51 = icmp sgt i32 %50, 1
  br i1 %51, label %52, label %54, !prof !11

52:                                               ; preds = %49
  %53 = add nsw i32 %50, -1
  store i32 %53, ptr %4, align 4, !tbaa !8
  br label %lean_dec.exit31

54:                                               ; preds = %49
  %.not.i39 = icmp eq i32 %50, 0
  br i1 %.not.i39, label %lean_dec.exit31, label %55

55:                                               ; preds = %54
  tail call void @lean_dec_ref_cold(ptr noundef nonnull %4) #5
  br label %lean_dec.exit31

lean_dec.exit31:                                  ; preds = %55, %54, %52, %lean_dec.exit32
  %56 = tail call ptr @lean_string_append(ptr noundef %48, ptr noundef %35) #5
  br label %83

57:                                               ; preds = %lean_dec.exit34
  %58 = load i32, ptr %4, align 4, !tbaa !8
  %59 = icmp sgt i32 %58, 1
  br i1 %59, label %60, label %62, !prof !11

60:                                               ; preds = %57
  %61 = add nsw i32 %58, -1
  store i32 %61, ptr %4, align 4, !tbaa !8
  br label %lean_dec.exit30

62:                                               ; preds = %57
  %.not.i41 = icmp eq i32 %58, 0
  br i1 %.not.i41, label %lean_dec.exit30, label %63

63:                                               ; preds = %62
  tail call void @lean_dec_ref_cold(ptr noundef nonnull %4) #5
  br label %lean_dec.exit30

lean_dec.exit30:                                  ; preds = %lean_dec.exit34.thread, %63, %62, %60
  %64 = load ptr, ptr %2, align 8, !tbaa !4
  %65 = ptrtoint ptr %64 to i64
  %66 = and i64 %65, 1
  %.not53 = icmp eq i64 %66, 0
  br i1 %.not53, label %67, label %lean_inc.exit

67:                                               ; preds = %lean_dec.exit30
  %.val.i49 = load i32, ptr %64, align 4, !tbaa !8
  %68 = icmp sgt i32 %.val.i49, 0
  br i1 %68, label %69, label %71, !prof !11

69:                                               ; preds = %67
  %70 = add nuw i32 %.val.i49, 1
  store i32 %70, ptr %64, align 4, !tbaa !8
  br label %lean_inc.exit

71:                                               ; preds = %67
  %.not.i50 = icmp eq i32 %.val.i49, 0
  br i1 %.not.i50, label %lean_inc.exit, label %72

72:                                               ; preds = %71
  tail call void @lean_inc_ref_cold(ptr noundef nonnull %64) #5
  br label %lean_inc.exit

lean_inc.exit:                                    ; preds = %72, %71, %69, %lean_dec.exit30
  %73 = ptrtoint ptr %0 to i64
  %74 = and i64 %73, 1
  %.not54 = icmp eq i64 %74, 0
  br i1 %.not54, label %75, label %lean_dec.exit

75:                                               ; preds = %lean_inc.exit
  %76 = load i32, ptr %0, align 4, !tbaa !8
  %77 = icmp sgt i32 %76, 1
  br i1 %77, label %78, label %80, !prof !11

78:                                               ; preds = %75
  %79 = add nsw i32 %76, -1
  store i32 %79, ptr %0, align 4, !tbaa !8
  br label %lean_dec.exit

80:                                               ; preds = %75
  %.not.i43 = icmp eq i32 %76, 0
  br i1 %.not.i43, label %lean_dec.exit, label %81

81:                                               ; preds = %80
  tail call void @lean_dec_ref_cold(ptr noundef nonnull %0) #5
  br label %lean_dec.exit

lean_dec.exit:                                    ; preds = %81, %80, %78, %lean_inc.exit
  %82 = tail call ptr @l_Lake_SemVerCore_toString(ptr noundef %64)
  br label %83

83:                                               ; preds = %lean_dec.exit, %lean_dec.exit31
  %.0 = phi ptr [ %56, %lean_dec.exit31 ], [ %82, %lean_dec.exit ]
  ret ptr %.0
}